target datalayout = "e-m:e-p270:32:32-p271:32:32-p272:64:64-i64:64-i128:128-f80:128-n8:16:32:64-S128"
target triple = "x86_64-pc-linux-gnu"

%"struct.duckdb_brotli::BlockSplit" = type { i64, i64, ptr, ptr, i64, i64 }
%"struct.duckdb_brotli::HistogramLiteral" = type { [256 x i32], i64, double }
%struct.BlockSplitterLiteral = type { i64, i64, double, i64, ptr, ptr, ptr, [2 x %"struct.duckdb_brotli::HistogramLiteral"], i64, i64, i64, [2 x i64], [2 x double], i64 }

; Function Attrs: alwaysinline mustprogress nounwind uwtable
define internal void @_ZN13duckdb_brotliL21HistogramClearLiteralEPNS_16HistogramLiteralE(ptr noundef %0) #2 {
  %2 = alloca ptr, align 8
  store ptr %0, ptr %2, align 8, !tbaa !68
  %3 = load ptr, ptr %2, align 8, !tbaa !68
  %4 = getelementptr inbounds nuw %"struct.duckdb_brotli::HistogramLiteral", ptr %3, i32 0, i32 0
  %5 = getelementptr inbounds [256 x i32], ptr %4, i64 0, i64 0
  call void @llvm.memset.p0.i64(ptr align 8 %5, i8 0, i64 1024, i1 false)
  %6 = load ptr, ptr %2, align 8, !tbaa !68
  %7 = getelementptr inbounds nuw %"struct.duckdb_brotli::HistogramLiteral", ptr %6, i32 0, i32 1
  store i64 0, ptr %7, align 8, !tbaa !113
  %8 = load ptr, ptr %2, align 8, !tbaa !68
  %9 = getelementptr inbounds nuw %"struct.duckdb_brotli::HistogramLiteral", ptr %8, i32 0, i32 2
  store double 0x7FF0000000000000, ptr %9, align 8, !tbaa !115
  ret void
}

; Function Attrs: alwaysinline mustprogress nounwind uwtable
define internal noundef i64 @_ZL17brotli_min_size_tmm(i64 noundef %0, i64 noundef %1) #2 {
  %3 = alloca i64, align 8
  %4 = alloca i64, align 8
  store i64 %0, ptr %3, align 8, !tbaa !26
  store i64 %1, ptr %4, align 8, !tbaa !26
  %5 = load i64, ptr %3, align 8, !tbaa !26
  %6 = load i64, ptr %4, align 8, !tbaa !26
  %7 = icmp ult i64 %5, %6
  br i1 %7, label %8, label %10

8:                                                ; preds = %2
  %9 = load i64, ptr %3, align 8, !tbaa !26
  br label %12

10:                                               ; preds = %2
  %11 = load i64, ptr %4, align 8, !tbaa !26
  br label %12

12:                                               ; preds = %10, %8
  %13 = phi i64 [ %9, %8 ], [ %11, %10 ]
  ret i64 %13
}

; Function Attrs: mustprogress uwtable
define internal void @_ZL24InitBlockSplitterLiteralPN13duckdb_brotli13MemoryManagerEP20BlockSplitterLiteralmmdmPNS_10BlockSplitEPPNS_16HistogramLiteralEPm(ptr noundef %0, ptr noundef %1, i64 noundef %2, i64 noundef %3, double noundef %4, i64 noundef %5, ptr noundef %6, ptr noundef %7, ptr noundef %8) #0 {
  %10 = alloca ptr, align 8
  %11 = alloca ptr, align 8
  %12 = alloca i64, align 8
  %13 = alloca i64, align 8
  %14 = alloca double, align 8
  %15 = alloca i64, align 8
  %16 = alloca ptr, align 8
  %17 = alloca ptr, align 8
  %18 = alloca ptr, align 8
  %19 = alloca i64, align 8
  %20 = alloca i64, align 8
  %21 = alloca i64, align 8
  %22 = alloca ptr, align 8
  %23 = alloca i64, align 8
  %24 = alloca ptr, align 8
  store ptr %0, ptr %10, align 8, !tbaa !22
  store ptr %1, ptr %11, align 8, !tbaa !119
  store i64 %2, ptr %12, align 8, !tbaa !26
  store i64 %3, ptr %13, align 8, !tbaa !26
  store double %4, ptr %14, align 8, !tbaa !37
  store i64 %5, ptr %15, align 8, !tbaa !26
  store ptr %6, ptr %16, align 8, !tbaa !121
  store ptr %7, ptr %17, align 8, !tbaa !123
  store ptr %8, ptr %18, align 8, !tbaa !125
  call void @llvm.lifetime.start.p0(i64 8, ptr %19) #9
  %25 = load i64, ptr %15, align 8, !tbaa !26
  %26 = load i64, ptr %13, align 8, !tbaa !26
  %27 = udiv i64 %25, %26
  %28 = add i64 %27, 1
  store i64 %28, ptr %19, align 8, !tbaa !26
  call void @llvm.lifetime.start.p0(i64 8, ptr %20) #9
  %29 = load i64, ptr %19, align 8, !tbaa !26
  %30 = call noundef i64 @_ZL17brotli_min_size_tmm(i64 noundef %29, i64 noundef 257)
  store i64 %30, ptr %20, align 8, !tbaa !26
  %31 = load i64, ptr %12, align 8, !tbaa !26
  %32 = load ptr, ptr %11, align 8, !tbaa !119
  %33 = getelementptr inbounds nuw %struct.BlockSplitterLiteral, ptr %32, i32 0, i32 0
  store i64 %31, ptr %33, align 8, !tbaa !127
  %34 = load i64, ptr %13, align 8, !tbaa !26
  %35 = load ptr, ptr %11, align 8, !tbaa !119
  %36 = getelementptr inbounds nuw %struct.BlockSplitterLiteral, ptr %35, i32 0, i32 1
  store i64 %34, ptr %36, align 8, !tbaa !129
  %37 = load double, ptr %14, align 8, !tbaa !37
  %38 = load ptr, ptr %11, align 8, !tbaa !119
  %39 = getelementptr inbounds nuw %struct.BlockSplitterLiteral, ptr %38, i32 0, i32 2
  store double %37, ptr %39, align 8, !tbaa !130
  %40 = load ptr, ptr %11, align 8, !tbaa !119
  %41 = getelementptr inbounds nuw %struct.BlockSplitterLiteral, ptr %40, i32 0, i32 3
  store i64 0, ptr %41, align 8, !tbaa !131
  %42 = load ptr, ptr %16, align 8, !tbaa !121
  %43 = load ptr, ptr %11, align 8, !tbaa !119
  %44 = getelementptr inbounds nuw %struct.BlockSplitterLiteral, ptr %43, i32 0, i32 4
  store ptr %42, ptr %44, align 8, !tbaa !132
  %45 = load ptr, ptr %18, align 8, !tbaa !125
  %46 = load ptr, ptr %11, align 8, !tbaa !119
  %47 = getelementptr inbounds nuw %struct.BlockSplitterLiteral, ptr %46, i32 0, i32 6
  store ptr %45, ptr %47, align 8, !tbaa !133
  %48 = load i64, ptr %13, align 8, !tbaa !26
  %49 = load ptr, ptr %11, align 8, !tbaa !119
  %50 = getelementptr inbounds nuw %struct.BlockSplitterLiteral, ptr %49, i32 0, i32 8
  store i64 %48, ptr %50, align 8, !tbaa !134
  %51 = load ptr, ptr %11, align 8, !tbaa !119
  %52 = getelementptr inbounds nuw %struct.BlockSplitterLiteral, ptr %51, i32 0, i32 9
  store i64 0, ptr %52, align 8, !tbaa !135
  %53 = load ptr, ptr %11, align 8, !tbaa !119
  %54 = getelementptr inbounds nuw %struct.BlockSplitterLiteral, ptr %53, i32 0, i32 10
  store i64 0, ptr %54, align 8, !tbaa !136
  %55 = load ptr, ptr %11, align 8, !tbaa !119
  %56 = getelementptr inbounds nuw %struct.BlockSplitterLiteral, ptr %55, i32 0, i32 13
  store i64 0, ptr %56, align 8, !tbaa !137
  %57 = load ptr, ptr %16, align 8, !tbaa !121
  %58 = getelementptr inbounds nuw %"struct.duckdb_brotli::BlockSplit", ptr %57, i32 0, i32 4
  %59 = load i64, ptr %58, align 8, !tbaa !138
  %60 = load i64, ptr %19, align 8, !tbaa !26
  %61 = icmp ult i64 %59, %60
  br i1 %61, label %62, label %119

62:                                               ; preds = %9
  call void @llvm.lifetime.start.p0(i64 8, ptr %21) #9
  %63 = load ptr, ptr %16, align 8, !tbaa !121
  %64 = getelementptr inbounds nuw %"struct.duckdb_brotli::BlockSplit", ptr %63, i32 0, i32 4
  %65 = load i64, ptr %64, align 8, !tbaa !138
  %66 = icmp eq i64 %65, 0
  br i1 %66, label %67, label %69

67:                                               ; preds = %62
  %68 = load i64, ptr %19, align 8, !tbaa !26
  br label %73

69:                                               ; preds = %62
  %70 = load ptr, ptr %16, align 8, !tbaa !121
  %71 = getelementptr inbounds nuw %"struct.duckdb_brotli::BlockSplit", ptr %70, i32 0, i32 4
  %72 = load i64, ptr %71, align 8, !tbaa !138
  br label %73

73:                                               ; preds = %69, %67
  %74 = phi i64 [ %68, %67 ], [ %72, %69 ]
  store i64 %74, ptr %21, align 8, !tbaa !26
  call void @llvm.lifetime.start.p0(i64 8, ptr %22) #9
  br label %75

75:                                               ; preds = %79, %73
  %76 = load i64, ptr %21, align 8, !tbaa !26
  %77 = load i64, ptr %19, align 8, !tbaa !26
  %78 = icmp ult i64 %76, %77
  br i1 %78, label %79, label %82

79:                                               ; preds = %75
  %80 = load i64, ptr %21, align 8, !tbaa !26
  %81 = mul i64 %80, 2
  store i64 %81, ptr %21, align 8, !tbaa !26
  br label %75, !llvm.loop !139

82:                                               ; preds = %75
  %83 = load i64, ptr %21, align 8, !tbaa !26
  %84 = icmp ugt i64 %83, 0
  br i1 %84, label %85, label %90

85:                                               ; preds = %82
  %86 = load ptr, ptr %10, align 8, !tbaa !22
  %87 = load i64, ptr %21, align 8, !tbaa !26
  %88 = mul i64 %87, 1
  %89 = call noundef ptr @_ZN13duckdb_brotli14BrotliAllocateEPNS_13MemoryManagerEm(ptr noundef %86, i64 noundef %88)
  br label %91

90:                                               ; preds = %82
  br label %91

91:                                               ; preds = %90, %85
  %92 = phi ptr [ %89, %85 ], [ null, %90 ]
  store ptr %92, ptr %22, align 8, !tbaa !24
  %93 = load ptr, ptr %16, align 8, !tbaa !121
  %94 = getelementptr inbounds nuw %"struct.duckdb_brotli::BlockSplit", ptr %93, i32 0, i32 4
  %95 = load i64, ptr %94, align 8, !tbaa !138
  %96 = icmp ne i64 %95, 0
  br i1 %96, label %97, label %106

97:                                               ; preds = %91
  %98 = load ptr, ptr %22, align 8, !tbaa !24
  %99 = load ptr, ptr %16, align 8, !tbaa !121
  %100 = getelementptr inbounds nuw %"struct.duckdb_brotli::BlockSplit", ptr %99, i32 0, i32 2
  %101 = load ptr, ptr %100, align 8, !tbaa !140
  %102 = load ptr, ptr %16, align 8, !tbaa !121
  %103 = getelementptr inbounds nuw %"struct.duckdb_brotli::BlockSplit", ptr %102, i32 0, i32 4
  %104 = load i64, ptr %103, align 8, !tbaa !138
  %105 = mul i64 %104, 1
  call void @llvm.memcpy.p0.p0.i64(ptr align 1 %98, ptr align 1 %101, i64 %105, i1 false)
  br label %106

106:                                              ; preds = %97, %91
  %107 = load ptr, ptr %10, align 8, !tbaa !22
  %108 = load ptr, ptr %16, align 8, !tbaa !121
  %109 = getelementptr inbounds nuw %"struct.duckdb_brotli::BlockSplit", ptr %108, i32 0, i32 2
  %110 = load ptr, ptr %109, align 8, !tbaa !140
  call void @_ZN13duckdb_brotli10BrotliFreeEPNS_13MemoryManagerEPv(ptr noundef %107, ptr noundef %110)
  %111 = load ptr, ptr %16, align 8, !tbaa !121
  %112 = getelementptr inbounds nuw %"struct.duckdb_brotli::BlockSplit", ptr %111, i32 0, i32 2
  store ptr null, ptr %112, align 8, !tbaa !140
  %113 = load ptr, ptr %22, align 8, !tbaa !24
  %114 = load ptr, ptr %16, align 8, !tbaa !121
  %115 = getelementptr inbounds nuw %"struct.duckdb_brotli::BlockSplit", ptr %114, i32 0, i32 2
  store ptr %113, ptr %115, align 8, !tbaa !140
  %116 = load i64, ptr %21, align 8, !tbaa !26
  %117 = load ptr, ptr %16, align 8, !tbaa !121
  %118 = getelementptr inbounds nuw %"struct.duckdb_brotli::BlockSplit", ptr %117, i32 0, i32 4
  store i64 %116, ptr %118, align 8, !tbaa !138
  call void @llvm.lifetime.end.p0(i64 8, ptr %22) #9
  call void @llvm.lifetime.end.p0(i64 8, ptr %21) #9
  br label %119

119:                                              ; preds = %106, %9
  %120 = load ptr, ptr %16, align 8, !tbaa !121
  %121 = getelementptr inbounds nuw %"struct.duckdb_brotli::BlockSplit", ptr %120, i32 0, i32 5
  %122 = load i64, ptr %121, align 8, !tbaa !141
  %123 = load i64, ptr %19, align 8, !tbaa !26
  %124 = icmp ult i64 %122, %123
  br i1 %124, label %125, label %182

125:                                              ; preds = %119
  call void @llvm.lifetime.start.p0(i64 8, ptr %23) #9
  %126 = load ptr, ptr %16, align 8, !tbaa !121
  %127 = getelementptr inbounds nuw %"struct.duckdb_brotli::BlockSplit", ptr %126, i32 0, i32 5
  %128 = load i64, ptr %127, align 8, !tbaa !141
  %129 = icmp eq i64 %128, 0
  br i1 %129, label %130, label %132

130:                                              ; preds = %125
  %131 = load i64, ptr %19, align 8, !tbaa !26
  br label %136

132:                                              ; preds = %125
  %133 = load ptr, ptr %16, align 8, !tbaa !121
  %134 = getelementptr inbounds nuw %"struct.duckdb_brotli::BlockSplit", ptr %133, i32 0, i32 5
  %135 = load i64, ptr %134, align 8, !tbaa !141
  br label %136

136:                                              ; preds = %132, %130
  %137 = phi i64 [ %131, %130 ], [ %135, %132 ]
  store i64 %137, ptr %23, align 8, !tbaa !26
  call void @llvm.lifetime.start.p0(i64 8, ptr %24) #9
  br label %138

138:                                              ; preds = %142, %136
  %139 = load i64, ptr %23, align 8, !tbaa !26
  %140 = load i64, ptr %19, align 8, !tbaa !26
  %141 = icmp ult i64 %139, %140
  br i1 %141, label %142, label %145

142:                                              ; preds = %138
  %143 = load i64, ptr %23, align 8, !tbaa !26
  %144 = mul i64 %143, 2
  store i64 %144, ptr %23, align 8, !tbaa !26
  br label %138, !llvm.loop !142

145:                                              ; preds = %138
  %146 = load i64, ptr %23, align 8, !tbaa !26
  %147 = icmp ugt i64 %146, 0
  br i1 %147, label %148, label %153

148:                                              ; preds = %145
  %149 = load ptr, ptr %10, align 8, !tbaa !22
  %150 = load i64, ptr %23, align 8, !tbaa !26
  %151 = mul i64 %150, 4
  %152 = call noundef ptr @_ZN13duckdb_brotli14BrotliAllocateEPNS_13MemoryManagerEm(ptr noundef %149, i64 noundef %151)
  br label %154

153:                                              ; preds = %145
  br label %154

154:                                              ; preds = %153, %148
  %155 = phi ptr [ %152, %148 ], [ null, %153 ]
  store ptr %155, ptr %24, align 8, !tbaa !96
  %156 = load ptr, ptr %16, align 8, !tbaa !121
  %157 = getelementptr inbounds nuw %"struct.duckdb_brotli::BlockSplit", ptr %156, i32 0, i32 5
  %158 = load i64, ptr %157, align 8, !tbaa !141
  %159 = icmp ne i64 %158, 0
  br i1 %159, label %160, label %169

160:                                              ; preds = %154
  %161 = load ptr, ptr %24, align 8, !tbaa !96
  %162 = load ptr, ptr %16, align 8, !tbaa !121
  %163 = getelementptr inbounds nuw %"struct.duckdb_brotli::BlockSplit", ptr %162, i32 0, i32 3
  %164 = load ptr, ptr %163, align 8, !tbaa !143
  %165 = load ptr, ptr %16, align 8, !tbaa !121
  %166 = getelementptr inbounds nuw %"struct.duckdb_brotli::BlockSplit", ptr %165, i32 0, i32 5
  %167 = load i64, ptr %166, align 8, !tbaa !141
  %168 = mul i64 %167, 4
  call void @llvm.memcpy.p0.p0.i64(ptr align 4 %161, ptr align 4 %164, i64 %168, i1 false)
  br label %169

169:                                              ; preds = %160, %154
  %170 = load ptr, ptr %10, align 8, !tbaa !22
  %171 = load ptr, ptr %16, align 8, !tbaa !121
  %172 = getelementptr inbounds nuw %"struct.duckdb_brotli::BlockSplit", ptr %171, i32 0, i32 3
  %173 = load ptr, ptr %172, align 8, !tbaa !143
  call void @_ZN13duckdb_brotli10BrotliFreeEPNS_13MemoryManagerEPv(ptr noundef %170, ptr noundef %173)
  %174 = load ptr, ptr %16, align 8, !tbaa !121
  %175 = getelementptr inbounds nuw %"struct.duckdb_brotli::BlockSplit", ptr %174, i32 0, i32 3
  store ptr null, ptr %175, align 8, !tbaa !143
  %176 = load ptr, ptr %24, align 8, !tbaa !96
  %177 = load ptr, ptr %16, align 8, !tbaa !121
  %178 = getelementptr inbounds nuw %"struct.duckdb_brotli::BlockSplit", ptr %177, i32 0, i32 3
  store ptr %176, ptr %178, align 8, !tbaa !143
  %179 = load i64, ptr %23, align 8, !tbaa !26
  %180 = load ptr, ptr %16, align 8, !tbaa !121
  %181 = getelementptr inbounds nuw %"struct.duckdb_brotli::BlockSplit", ptr %180, i32 0, i32 5
  store i64 %179, ptr %181, align 8, !tbaa !141
  call void @llvm.lifetime.end.p0(i64 8, ptr %24) #9
  call void @llvm.lifetime.end.p0(i64 8, ptr %23) #9
  br label %182

182:                                              ; preds = %169, %119
  %183 = load i64, ptr %19, align 8, !tbaa !26
  %184 = load ptr, ptr %11, align 8, !tbaa !119
  %185 = getelementptr inbounds nuw %struct.BlockSplitterLiteral, ptr %184, i32 0, i32 4
  %186 = load ptr, ptr %185, align 8, !tbaa !132
  %187 = getelementptr inbounds nuw %"struct.duckdb_brotli::BlockSplit", ptr %186, i32 0, i32 1
  store i64 %183, ptr %187, align 8, !tbaa !144
  %188 = load i64, ptr %20, align 8, !tbaa !26
  %189 = load ptr, ptr %18, align 8, !tbaa !125
  store i64 %188, ptr %189, align 8, !tbaa !26
  %190 = load ptr, ptr %18, align 8, !tbaa !125
  %191 = load i64, ptr %190, align 8, !tbaa !26
  %192 = icmp ugt i64 %191, 0
  br i1 %192, label %193, label %199

193:                                              ; preds = %182
  %194 = load ptr, ptr %10, align 8, !tbaa !22
  %195 = load ptr, ptr %18, align 8, !tbaa !125
  %196 = load i64, ptr %195, align 8, !tbaa !26
  %197 = mul i64 %196, 1040
  %198 = call noundef ptr @_ZN13duckdb_brotli14BrotliAllocateEPNS_13MemoryManagerEm(ptr noundef %194, i64 noundef %197)
  br label %200

199:                                              ; preds = %182
  br label %200

200:                                              ; preds = %199, %193
  %201 = phi ptr [ %198, %193 ], [ null, %199 ]
  %202 = load ptr, ptr %17, align 8, !tbaa !123
  store ptr %201, ptr %202, align 8, !tbaa !68
  %203 = load ptr, ptr %17, align 8, !tbaa !123
  %204 = load ptr, ptr %203, align 8, !tbaa !68
  %205 = load ptr, ptr %11, align 8, !tbaa !119
  %206 = getelementptr inbounds nuw %struct.BlockSplitterLiteral, ptr %205, i32 0, i32 5
  store ptr %204, ptr %206, align 8, !tbaa !145
  %207 = load ptr, ptr %11, align 8, !tbaa !119
  %208 = getelementptr inbounds nuw %struct.BlockSplitterLiteral, ptr %207, i32 0, i32 5
  %209 = load ptr, ptr %208, align 8, !tbaa !145
  %210 = getelementptr inbounds %"struct.duckdb_brotli::HistogramLiteral", ptr %209, i64 0
  call void @_ZN13duckdb_brotliL21HistogramClearLiteralEPNS_16HistogramLiteralE(ptr noundef %210)
  %211 = load ptr, ptr %11, align 8, !tbaa !119
  %212 = getelementptr inbounds nuw %struct.BlockSplitterLiteral, ptr %211, i32 0, i32 11
  %213 = getelementptr inbounds [2 x i64], ptr %212, i64 0, i64 1
  store i64 0, ptr %213, align 8, !tbaa !26
  %214 = load ptr, ptr %11, align 8, !tbaa !119
  %215 = getelementptr inbounds nuw %struct.BlockSplitterLiteral, ptr %214, i32 0, i32 11
  %216 = getelementptr inbounds [2 x i64], ptr %215, i64 0, i64 0
  store i64 0, ptr %216, align 8, !tbaa !26
  call void @llvm.lifetime.end.p0(i64 8, ptr %20) #9
  call void @llvm.lifetime.end.p0(i64 8, ptr %19) #9
  ret void
}